target datalayout = "e-m:e-p270:32:32-p271:32:32-p272:64:64-i64:64-i128:128-f80:128-n8:16:32:64-S128"
target triple = "x86_64-pc-linux-gnu"

%struct.SDL_Gamepad = type { ptr, i32, ptr, i32, i32, ptr, i32, ptr, ptr, ptr, i64, ptr }
%struct.SDL_GamepadBinding = type { i32, %union.anon, i32, %union.anon.1 }
%union.anon = type { %struct.anon }
%struct.anon = type { i32, i32, i32 }
%union.anon.1 = type { %struct.anon.2 }
%struct.anon.2 = type { i32, i32, i32 }

@.str.4 = private unnamed_addr constant [26 x i8] c"Parameter '%s' is invalid\00", align 1
@.str.5 = private unnamed_addr constant [8 x i8] c"gamepad\00", align 1

; Function Attrs: nounwind uwtable
define hidden zeroext i1 @SDL_GamepadHasButton_REAL(ptr noundef %0, i32 noundef %1) #0 {
  %3 = alloca i1, align 1
  %4 = alloca ptr, align 8
  %5 = alloca i32, align 4
  %6 = alloca i8, align 1
  %7 = alloca i32, align 4
  %8 = alloca i32, align 4
  %9 = alloca ptr, align 8
  store ptr %0, ptr %4, align 8
  store i32 %1, ptr %5, align 4
  call void @llvm.lifetime.start.p0(i64 1, ptr %6) #8
  store i8 0, ptr %6, align 1
  call void @SDL_LockJoysticks_REAL()
  call void @llvm.lifetime.start.p0(i64 4, ptr %7) #8
  %10 = load ptr, ptr %4, align 8
  %11 = call zeroext i1 @SDL_ObjectValid(ptr noundef %10, i32 noundef 5)
  br i1 %11, label %12, label %17

12:                                               ; preds = %2
  %13 = load ptr, ptr %4, align 8
  %14 = getelementptr inbounds nuw %struct.SDL_Gamepad, ptr %13, i32 0, i32 0
  %15 = load ptr, ptr %14, align 8
  %16 = call zeroext i1 @SDL_IsJoystickValid(ptr noundef %15)
  br i1 %16, label %19, label %17

17:                                               ; preds = %12, %2
  %18 = call zeroext i1 (ptr, ...) @SDL_SetError_REAL(ptr noundef @.str.4, ptr noundef @.str.5)
  call void @SDL_UnlockJoysticks_REAL()
  store i1 false, ptr %3, align 1
  store i32 1, ptr %8, align 4
  br label %52

19:                                               ; preds = %12
  store i32 0, ptr %7, align 4
  br label %20

20:                                               ; preds = %48, %19
  %21 = load i32, ptr %7, align 4
  %22 = load ptr, ptr %4, align 8
  %23 = getelementptr inbounds nuw %struct.SDL_Gamepad, ptr %22, i32 0, i32 6
  %24 = load i32, ptr %23, align 8
  %25 = icmp slt i32 %21, %24
  br i1 %25, label %26, label %51

26:                                               ; preds = %20
  call void @llvm.lifetime.start.p0(i64 8, ptr %9) #8
  %27 = load ptr, ptr %4, align 8
  %28 = getelementptr inbounds nuw %struct.SDL_Gamepad, ptr %27, i32 0, i32 7
  %29 = load ptr, ptr %28, align 8
  %30 = load i32, ptr %7, align 4
  %31 = sext i32 %30 to i64
  %32 = getelementptr inbounds %struct.SDL_GamepadBinding, ptr %29, i64 %31
  store ptr %32, ptr %9, align 8
  %33 = load ptr, ptr %9, align 8
  %34 = getelementptr inbounds nuw %struct.SDL_GamepadBinding, ptr %33, i32 0, i32 2
  %35 = load i32, ptr %34, align 4
  %36 = icmp eq i32 %35, 1
  br i1 %36, label %37, label %44

37:                                               ; preds = %26
  %38 = load ptr, ptr %9, align 8
  %39 = getelementptr inbounds nuw %struct.SDL_GamepadBinding, ptr %38, i32 0, i32 3
  %40 = load i32, ptr %39, align 4
  %41 = load i32, ptr %5, align 4
  %42 = icmp eq i32 %40, %41
  br i1 %42, label %43, label %44

43:                                               ; preds = %37
  store i8 1, ptr %6, align 1
  store i32 2, ptr %8, align 4
  br label %45

44:                                               ; preds = %37, %26
  store i32 0, ptr %8, align 4
  br label %45

45:                                               ; preds = %44, %43
  call void @llvm.lifetime.end.p0(i64 8, ptr %9) #8
  %46 = load i32, ptr %8, align 4
  switch i32 %46, label %59 [
    i32 0, label %47
    i32 2, label %51
  ]

47:                                               ; preds = %45
  br label %48

48:                                               ; preds = %47
  %49 = load i32, ptr %7, align 4
  %50 = add nsw i32 %49, 1
  store i32 %50, ptr %7, align 4
  br label %20, !llvm.loop !39

51:                                               ; preds = %45, %20
  store i32 0, ptr %8, align 4
  br label %52

52:                                               ; preds = %51, %17
  call void @llvm.lifetime.end.p0(i64 4, ptr %7) #8
  %53 = load i32, ptr %8, align 4
  switch i32 %53, label %57 [
    i32 0, label %54
  ]

54:                                               ; preds = %52
  call void @SDL_UnlockJoysticks_REAL()
  %55 = load i8, ptr %6, align 1, !range !3, !noundef !4
  %56 = trunc i8 %55 to i1
  store i1 %56, ptr %3, align 1
  store i32 1, ptr %8, align 4
  br label %57

57:                                               ; preds = %54, %52
  call void @llvm.lifetime.end.p0(i64 1, ptr %6) #8
  %58 = load i1, ptr %3, align 1
  ret i1 %58

59:                                               ; preds = %45
  unreachable
}